; Function Attrs: mustprogress nofree norecurse nosync nounwind willreturn memory(argmem: readwrite) uwtable
define void @_ZN8QuantLib11AlphaFinderC2EN5boost10shared_ptrINS_9AlphaFormEEE(ptr nocapture noundef nonnull writeonly align 8 dereferenceable(176) %this, ptr nocapture noundef %parametricform) unnamed_addr #0 align 2 {
entry:
  %0 = load ptr, ptr %parametricform, align 8, !tbaa !3
  store ptr %0, ptr %this, align 8, !tbaa !3
  %pn.i = getelementptr inbounds nuw i8, ptr %this, i64 8
  %pn3.i = getelementptr inbounds nuw i8, ptr %parametricform, i64 8
  %1 = load ptr, ptr %pn3.i, align 8, !tbaa !9
  store ptr %1, ptr %pn.i, align 8, !tbaa !9
  tail call void @llvm.memset.p0.i64(ptr noundef nonnull align 8 dereferenceable(16) %parametricform, i8 0, i64 16, i1 false)
  %rateonevols_ = getelementptr inbounds nuw i8, ptr %this, i64 24
  tail call void @llvm.memset.p0.i64(ptr noundef nonnull align 8 dereferenceable(96) %rateonevols_, i8 0, i64 96, i1 false)
  ret void
}